(dp1
S'evictions'
p2
(dp3
S'944c4dfd5e65bedde1badeae924df50c3899bbe7'
p4
F1362919534.431421
sS'dc486ed45de5d857b66c4f44d416b0ac23fd132b'
p5
F1362674599.7970181
sS'b1c29f70c9bcb35ccbccd055b8d7e837766e2925'
p6
F1362759672.1199529
sS'885bb4506bfa7861c6b8fdb9e7474e434f7adc27'
p7
F1362735882.173105
ssg4
(S'H'
I269
tp8
sg5
(S'H'
I266
tp9
sg6
(S'H'
I268
tp10
sS'version'
p11
I2
sg7
(S'H'
I267
tp12
s.