(dp1
S'5009c13910c341c347964f66304e456f56f49cd3'
p2
(S'H'
I68914
tp3
sS'6ad197e76ed839af5115b6215add35fcee8ddb7d'
p4
(S'H'
I68907
tp5
sS'fea34ad01647ddfca3d6311dc72df2d068a8723d'
p6
(S'H'
I68929
tp7
sS'e129884f233302df7831eaa9a789c47dff4db118'
p8
(S'H'
I68925
tp9
sS'49b6bb6e53291c476e00996b45f36ddea5184560'
p10
(S'H'
I68919
tp11
sS'fdebefa7cb01062cf0fc9dd7a8006f1d563c0c71'
p12
(S'H'
I68921
tp13
sS'0816ad3e7991b96dd1db4bd83a55950e802ef5b7'
p14
(S'H'
I68915
tp15
sS'eb98cee467a6b1c3ec39b5ede7a1dcea3e6f9b81'
p16
(S'H'
I68906
tp17
sS'8df499da99036f9f541dd3e5286651f1d4f4c699'
p18
(S'H'
I68913
tp19
sS'dceddb64bf344d2628799632b7bff5969c1a7ae7'
p20
(S'H'
I68912
tp21
sS'f629b7a12e1bb9c932d1cd55754d5ef00d9b7170'
p22
(S'H'
I68905
tp23
sS'version'
p24
I2
sS'2e1d7ab2c484165812b03ad29ec88c60e827c50f'
p25
(S'H'
I68904
tp26
sS'48695696747775c9c6a3530fbefd55e2d95dd437'
p27
(S'H'
I68918
tp28
sS'6cf347bc6a047cae14dbd1a9e3d2ba7c2f409ebd'
p29
(S'H'
I68908
tp30
sS'a0636395e77b5648028dfebe4c8f237b6778634f'
p31
(S'H'
I68909
tp32
sS'26f0a4508512250e57f49a5be4832a984685042d'
p33
(S'H'
I68926
tp34
sS'da044fd67281ac9a52526d7d86f185eb841812bc'
p35
(S'H'
I68911
tp36
sS'ef7dfabca0d236671fd79ddec1f6508a551bf633'
p37
(S'H'
I68920
tp38
sS'b4793cb0cff90f59d7aa346552287ca2564b1b6e'
p39
(S'H'
I68927
tp40
sS'2433787b77f79477655a8b3699adf2e1776bf5c2'
p41
(S'H'
I68923
tp42
sS'8231518709b7bd71c691c04696bee3448a1760a5'
p43
(S'H'
I68917
tp44
sS'evictions'
p45
(dp46
g2
F1362761301.948204
sg4
F1362668288.057833
sg6
F1362904525.0570719
sg8
F1362845846.2968199
sg10
F1362814237.5317271
sg12
F1362828617.930135
sg20
F1362734005.7171071
sg16
F1362661874.403147
sg18
F1362751720.8174281
sg14
F1362761747.739584
sg22
F1362660735.25967
sg25
F1362660678.943712
sg27
F1362813084.8206041
sg29
F1362669476.688838
sg31
F1362682993.3740809
sg33
F1362894142.396292
sg35
F1362731686.575228
sg37
F1362816703.785886
sg39
F1362902659.1430459
sg41
F1362835483.921309
sg43
F1362781540.0467019
sS'2501f09805c756a5f4665527d765b08febaeb0f8'
p47
F1362837958.6597109
sS'66192da492acbbb1d7792e7870170351df78bfd8'
p48
F1362919712.3633471
sS'7b74e582ab96a2c91f7d881f324ee52fcad3701b'
p49
F1362763389.0269229
sS'13b596e06755094960860c0355765ea280697d35'
p50
F1362700408.0221939
sS'1738e574a3a4072a87b1f6ffb764ce478968c167'
p51
F1362831123.1007929
sS'1ce8cabc0cb0e9e27c9ff97c58cc3c40820fbb5a'
p52
F1362902985.7828989
ssg47
(S'H'
I68924
tp53
sg48
(S'H'
I68930
tp54
sg49
(S'H'
I68916
tp55
sg50
(S'H'
I68910
tp56
sg51
(S'H'
I68922
tp57
sg52
(S'H'
I68928
tp58
s.